; Function Attrs: mustprogress uwtable
define void @_ZN6icu_7512SelectFormatC2ERKNS_13UnicodeStringER10UErrorCode(ptr noundef nonnull align 8 dereferenceable(456) %this, ptr noundef nonnull align 8 dereferenceable(64) %pat, ptr noundef nonnull align 4 dereferenceable(4) %status) unnamed_addr #1 align 2 personality ptr @__gxx_personality_v0 {
entry:
  tail call void @_ZN6icu_756FormatC2Ev(ptr noundef nonnull align 8 dereferenceable(322) %this)
  store ptr getelementptr inbounds ({ [11 x ptr] }, ptr @_ZTVN6icu_7512SelectFormatE, i64 0, i32 0, i64 2), ptr %this, align 8
  %msgPattern = getelementptr inbounds i8, ptr %this, i64 328
  invoke void @_ZN6icu_7514MessagePatternC1ER10UErrorCode(ptr noundef nonnull align 8 dereferenceable(127) %msgPattern, ptr noundef nonnull align 4 dereferenceable(4) %status)
          to label %invoke.cont unwind label %lpad

invoke.cont:                                      ; preds = %entry
  %0 = load i32, ptr %status, align 4
  %cmp.i.i = icmp slt i32 %0, 1
  br i1 %cmp.i.i, label %if.end.i, label %invoke.cont3

if.end.i:                                         ; preds = %invoke.cont
  %call2.i3 = invoke noundef nonnull align 8 dereferenceable(127) ptr @_ZN6icu_7514MessagePattern16parseSelectStyleERKNS_13UnicodeStringEP11UParseErrorR10UErrorCode(ptr noundef nonnull align 8 dereferenceable(127) %msgPattern, ptr noundef nonnull align 8 dereferenceable(64) %pat, ptr noundef null, ptr noundef nonnull align 4 dereferenceable(4) %status)
          to label %call2.i.noexc unwind label %lpad2

call2.i.noexc:                                    ; preds = %if.end.i
  %1 = load i32, ptr %status, align 4
  %cmp.i3.i = icmp slt i32 %1, 1
  br i1 %cmp.i3.i, label %invoke.cont3, label %if.then5.i

if.then5.i:                                       ; preds = %call2.i.noexc
  invoke void @_ZN6icu_7514MessagePattern5clearEv(ptr noundef nonnull align 8 dereferenceable(127) %msgPattern)
          to label %invoke.cont3 unwind label %lpad2

invoke.cont3:                                     ; preds = %call2.i.noexc, %invoke.cont, %if.then5.i
  ret void

lpad:                                             ; preds = %entry
  %2 = landingpad { ptr, i32 }
          cleanup
  br label %ehcleanup

lpad2:                                            ; preds = %if.then5.i, %if.end.i
  %3 = landingpad { ptr, i32 }
          cleanup
  tail call void @_ZN6icu_7514MessagePatternD1Ev(ptr noundef nonnull align 8 dereferenceable(127) %msgPattern) #10
  br label %ehcleanup

ehcleanup:                                        ; preds = %lpad2, %lpad
  %.pn = phi { ptr, i32 } [ %3, %lpad2 ], [ %2, %lpad ]
  tail call void @_ZN6icu_756FormatD2Ev(ptr noundef nonnull align 8 dereferenceable(322) %this) #10
  resume { ptr, i32 } %.pn
}